; ModuleID = '28/1318.c'
source_filename = "28/1318.c"
target datalayout = "e-m:e-p270:32:32-p271:32:32-p272:64:64-i64:64-f80:128-n8:16:32:64-S128"
target triple = "x86_64-pc-linux-gnu"

@.str = private unnamed_addr constant [4 x i8] c"%d,\00", align 1
@.str.1 = private unnamed_addr constant [4 x i8] c"%d\0A\00", align 1

; Function Attrs: noinline nounwind uwtable
define dso_local void @main() #0 {
  %1 = alloca i32, align 4
  %2 = alloca i32, align 4
  %3 = alloca i32, align 4
  %4 = alloca i32, align 4
  %5 = alloca [300 x i32], align 16
  %6 = alloca [10000 x i8], align 16
  %7 = getelementptr inbounds [10000 x i8], [10000 x i8]* %6, i64 0, i64 0
  %8 = call i32 (i8*, ...) bitcast (i32 (...)* @gets to i32 (i8*, ...)*)(i8* %7)
  %9 = getelementptr inbounds [10000 x i8], [10000 x i8]* %6, i64 0, i64 0
  %10 = call i64 @strlen(i8* %9) #3
  %11 = trunc i64 %10 to i32
  store i32 %11, i32* %2, align 4
  %12 = getelementptr inbounds [300 x i32], [300 x i32]* %5, i64 0, i64 0
  store i32 0, i32* %12, align 16
  store i32 1, i32* %3, align 4
  store i32 0, i32* %4, align 4
  store i32 1, i32* %1, align 4
  br label %13

13:                                               ; preds = %58, %0
  %14 = load i32, i32* %1, align 4
  %15 = load i32, i32* %2, align 4
  %16 = icmp slt i32 %14, %15
  br i1 %16, label %17, label %61

17:                                               ; preds = %13
  %18 = load i32, i32* %1, align 4
  %19 = sext i32 %18 to i64
  %20 = getelementptr inbounds [10000 x i8], [10000 x i8]* %6, i64 0, i64 %19
  %21 = load i8, i8* %20, align 1
  %22 = sext i8 %21 to i32
  %23 = icmp eq i32 %22, 32
  br i1 %23, label %24, label %58

24:                                               ; preds = %17
  %25 = load i32, i32* %3, align 4
  %26 = icmp eq i32 %25, 1
  br i1 %26, label %27, label %34

27:                                               ; preds = %24
  %28 = load i32, i32* %1, align 4
  %29 = load i32, i32* %4, align 4
  %30 = sub nsw i32 %28, %29
  %31 = load i32, i32* %3, align 4
  %32 = sext i32 %31 to i64
  %33 = getelementptr inbounds [300 x i32], [300 x i32]* %5, i64 0, i64 %32
  store i32 %30, i32* %33, align 4
  br label %42

34:                                               ; preds = %24
  %35 = load i32, i32* %1, align 4
  %36 = load i32, i32* %4, align 4
  %37 = sub nsw i32 %35, %36
  %38 = sub nsw i32 %37, 1
  %39 = load i32, i32* %3, align 4
  %40 = sext i32 %39 to i64
  %41 = getelementptr inbounds [300 x i32], [300 x i32]* %5, i64 0, i64 %40
  store i32 %38, i32* %41, align 4
  br label %42

42:                                               ; preds = %34, %27
  %43 = load i32, i32* %3, align 4
  %44 = sext i32 %43 to i64
  %45 = getelementptr inbounds [300 x i32], [300 x i32]* %5, i64 0, i64 %44
  %46 = load i32, i32* %45, align 4
  %47 = icmp ne i32 %46, 0
  br i1 %47, label %48, label %54

48:                                               ; preds = %42
  %49 = load i32, i32* %3, align 4
  %50 = sext i32 %49 to i64
  %51 = getelementptr inbounds [300 x i32], [300 x i32]* %5, i64 0, i64 %50
  %52 = load i32, i32* %51, align 4
  %53 = call i32 (i8*, ...) @printf(i8* getelementptr inbounds ([4 x i8], [4 x i8]* @.str, i64 0, i64 0), i32 %52)
  br label %54

54:                                               ; preds = %48, %42
  %55 = load i32, i32* %1, align 4
  store i32 %55, i32* %4, align 4
  %56 = load i32, i32* %3, align 4
  %57 = add nsw i32 %56, 1
  store i32 %57, i32* %3, align 4
  br label %58

58:                                               ; preds = %54, %17
  %59 = load i32, i32* %1, align 4
  %60 = add nsw i32 %59, 1
  store i32 %60, i32* %1, align 4
  br label %13

61:                                               ; preds = %13
  %62 = load i32, i32* %3, align 4
  %63 = icmp eq i32 %62, 1
  br i1 %63, label %64, label %71

64:                                               ; preds = %61
  %65 = load i32, i32* %2, align 4
  %66 = load i32, i32* %4, align 4
  %67 = sub nsw i32 %65, %66
  %68 = load i32, i32* %3, align 4
  %69 = sext i32 %68 to i64
  %70 = getelementptr inbounds [300 x i32], [300 x i32]* %5, i64 0, i64 %69
  store i32 %67, i32* %70, align 4
  br label %79

71:                                               ; preds = %61
  %72 = load i32, i32* %2, align 4
  %73 = load i32, i32* %4, align 4
  %74 = sub nsw i32 %72, %73
  %75 = sub nsw i32 %74, 1
  %76 = load i32, i32* %3, align 4
  %77 = sext i32 %76 to i64
  %78 = getelementptr inbounds [300 x i32], [300 x i32]* %5, i64 0, i64 %77
  store i32 %75, i32* %78, align 4
  br label %79

79:                                               ; preds = %71, %64
  %80 = load i32, i32* %3, align 4
  %81 = sext i32 %80 to i64
  %82 = getelementptr inbounds [300 x i32], [300 x i32]* %5, i64 0, i64 %81
  %83 = load i32, i32* %82, align 4
  %84 = call i32 (i8*, ...) @printf(i8* getelementptr inbounds ([4 x i8], [4 x i8]* @.str.1, i64 0, i64 0), i32 %83)
  ret void
}

declare dso_local i32 @gets(...) #1

; Function Attrs: nounwind readonly
declare dso_local i64 @strlen(i8*) #2

declare dso_local i32 @printf(i8*, ...) #1


!llvm.module.flags = !{!0}
!llvm.ident = !{!1}

!0 = !{i32 1, !"wchar_size", i32 4}
!1 = !{!"clang version 10.0.0-4ubuntu1 "}
