; ModuleID = 'source-C-CXX/27/1318.c'
source_filename = "source-C-CXX/27/1318.c"
target datalayout = "e-m:e-p270:32:32-p271:32:32-p272:64:64-i64:64-f80:128-n8:16:32:64-S128"
target triple = "x86_64-pc-linux-gnu"

@.str = private unnamed_addr constant [4 x i8] c"%d,\00", align 1
@.str.1 = private unnamed_addr constant [4 x i8] c"%d\0A\00", align 1

; Function Attrs: nounwind sspstrong uwtable
define dso_local void @main() local_unnamed_addr #0 {
  %1 = alloca [10000 x i8], align 16
  %2 = getelementptr inbounds [10000 x i8], [10000 x i8]* %1, i64 0, i64 0
  call void @llvm.lifetime.start.p0i8(i64 10000, i8* nonnull %2) #5
  %3 = call i32 (i8*, ...) bitcast (i32 (...)* @gets to i32 (i8*, ...)*)(i8* nonnull %2) #5
  %4 = call i64 @strlen(i8* noundef nonnull %2) #6
  %5 = trunc i64 %4 to i32
  %6 = icmp sgt i32 %5, 1
  br i1 %6, label %7, label %37

7:                                                ; preds = %0
  %8 = and i64 %4, 4294967295
  br label %9

9:                                                ; preds = %7, %30
  %10 = phi i64 [ 1, %7 ], [ %33, %30 ]
  %11 = phi i32 [ 0, %7 ], [ %32, %30 ]
  %12 = phi i32 [ 1, %7 ], [ %31, %30 ]
  %13 = getelementptr inbounds [10000 x i8], [10000 x i8]* %1, i64 0, i64 %10
  %14 = load i8, i8* %13, align 1, !tbaa !5
  %15 = icmp eq i8 %14, 32
  br i1 %15, label %16, label %30

16:                                               ; preds = %9
  %17 = icmp eq i32 %12, 1
  %18 = xor i32 %11, -1
  %19 = trunc i64 %10 to i32
  %20 = add i32 %19, %18
  %21 = trunc i64 %10 to i32
  %22 = sub nsw i32 %21, %11
  %23 = select i1 %17, i32 %22, i32 %20
  %24 = icmp eq i32 %23, 0
  br i1 %24, label %27, label %25

25:                                               ; preds = %16
  %26 = call i32 (i8*, ...) @printf(i8* nonnull dereferenceable(1) getelementptr inbounds ([4 x i8], [4 x i8]* @.str, i64 0, i64 0), i32 %23)
  br label %27

27:                                               ; preds = %25, %16
  %28 = add nsw i32 %12, 1
  %29 = trunc i64 %10 to i32
  br label %30

30:                                               ; preds = %27, %9
  %31 = phi i32 [ %28, %27 ], [ %12, %9 ]
  %32 = phi i32 [ %29, %27 ], [ %11, %9 ]
  %33 = add nuw nsw i64 %10, 1
  %34 = icmp eq i64 %33, %8
  br i1 %34, label %35, label %9, !llvm.loop !8

35:                                               ; preds = %30
  %36 = icmp eq i32 %31, 1
  br i1 %36, label %37, label %40

37:                                               ; preds = %0, %35
  %38 = phi i32 [ %32, %35 ], [ 0, %0 ]
  %39 = sub nsw i32 %5, %38
  br label %43

40:                                               ; preds = %35
  %41 = xor i32 %32, -1
  %42 = add i32 %41, %5
  br label %43

43:                                               ; preds = %40, %37
  %44 = phi i32 [ %42, %40 ], [ %39, %37 ]
  %45 = call i32 (i8*, ...) @printf(i8* nonnull dereferenceable(1) getelementptr inbounds ([4 x i8], [4 x i8]* @.str.1, i64 0, i64 0), i32 %44)
  call void @llvm.lifetime.end.p0i8(i64 10000, i8* nonnull %2) #5
  ret void
}

; Function Attrs: argmemonly mustprogress nofree nosync nounwind willreturn
declare void @llvm.lifetime.start.p0i8(i64 immarg, i8* nocapture) #1

declare i32 @gets(...) local_unnamed_addr #2

; Function Attrs: argmemonly mustprogress nofree nounwind readonly willreturn
declare i64 @strlen(i8* nocapture) local_unnamed_addr #3

; Function Attrs: nofree nounwind
declare noundef i32 @printf(i8* nocapture noundef readonly, ...) local_unnamed_addr #4

; Function Attrs: argmemonly mustprogress nofree nosync nounwind willreturn
declare void @llvm.lifetime.end.p0i8(i64 immarg, i8* nocapture) #1


!llvm.module.flags = !{!0, !1, !2, !3}
!llvm.ident = !{!4}

!0 = !{i32 1, !"wchar_size", i32 4}
!1 = !{i32 7, !"PIC Level", i32 2}
!2 = !{i32 7, !"PIE Level", i32 2}
!3 = !{i32 7, !"uwtable", i32 1}
!4 = !{!"clang version 13.0.0"}
!5 = !{!6, !6, i64 0}
!6 = !{!"omnipotent char", !7, i64 0}
!7 = !{!"Simple C/C++ TBAA"}
!8 = distinct !{!8, !9}
!9 = !{!"llvm.loop.mustprogress"}
